((dp1
S'wrm'
p2
(dp3
S'is'
p4
I2
sS'rat'
p5
I1
sS'science-all'
p6
I1
sS'engineering-ce'
p7
I2
sS'vet'
p8
I1
sS'csi'
p9
I5
sS'rtpm'
p10
I2
sS'svat'
p11
I3
sS'cspan'
p12
I2
sS'soap'
p13
I1
sS'ywca'
p14
I2
sS'voss'
p15
I2
sS'odos'
p16
I1
sS'other-cfsci'
p17
I1
sS'haiti'
p18
I4
sS'wise'
p19
I2
sS'bgi'
p20
I9
sS'engineering-ee'
p21
I1
sS'hfh'
p22
I3
sS'engineering-me'
p23
I1
sS'lsme'
p24
I1
sS'engineering-abe'
p25
I2
ssS'lsc'
p26
(dp27
S'hhes'
p28
I5
sS'is'
p29
I5
sS'engineering-cmpe'
p30
I1
sS'rat'
p31
I3
sS'disc'
p32
I1
sS'science-all'
p33
I5
sS'engineering-ce'
p34
I3
sS'slac'
p35
I1
sS'csi'
p36
I7
sS'mclc'
p37
I2
sS'liberal_arts-all'
p38
I2
sS'rtpm'
p39
I3
sS'ims'
p40
I1
sS'zoo'
p41
I1
sS'wcgi'
p42
I1
sS'svat'
p43
I1
sS'other-mgmt'
p44
I1
sS'cspan'
p45
I10
sS'engineering-bme'
p46
I1
sS'technology-met'
p47
I1
sS'ywca'
p48
I1
sS'odos'
p49
I2
sS'glass-at'
p50
I3
sS'lara'
p51
I5
sS'voss'
p52
I5
sS'csops'
p53
I1
sS'uprc'
p54
I2
sS'kes'
p55
I7
sS'bgi'
p56
I5
sS'engineering-ee'
p57
I2
sS'hfh'
p58
I9
sS'glass-ps'
p59
I4
sS'engineering-ide'
p60
I2
sS'engineering-me'
p61
I3
sS'wlpl'
p62
I2
sS'lsme'
p63
I2
sS'cfrc'
p64
I1
sS'engineering-che'
p65
I1
ssS'hhes'
p66
(dp67
S'lsc'
p68
I5
sS'other-edu'
p69
I1
sS'is'
p70
I17
sS'engineering-cmpe'
p71
I4
sS'rat'
p72
I4
sS'science-all'
p73
I3
sS'engineering-ce'
p74
I1
sS'slac'
p75
I4
sS'haiti'
p76
I1
sS'engineering-mse'
p77
I1
sS'engineering-aae'
p78
I1
sS'csi'
p79
I10
sS'mclc'
p80
I7
sg38
I1
sS'lara'
p81
I1
sS'zoo'
p82
I14
sS'wcgi'
p83
I1
sS'svat'
p84
I8
sS'cspan'
p85
I4
sS'science-cs'
p86
I1
sS'engineering-nucl'
p87
I2
sS'engineering-bme'
p88
I2
sS'ywca'
p89
I2
sS'glass-at'
p90
I3
sS'voss'
p91
I9
sS'csops'
p92
I2
sS'other-cfsci'
p93
I2
sS'uprc'
p94
I6
sS'kes'
p95
I9
sS'technology-ecet'
p96
I1
sS'bgi'
p97
I10
sS'engineering-ee'
p98
I5
sS'soap'
p99
I3
sS'hfh'
p100
I13
sS'glass-ps'
p101
I7
sg40
I2
sS'engineering-ide'
p102
I1
sS'engineering-me'
p103
I3
sS'wlpl'
p104
I3
sS'lsme'
p105
I10
sS'cfrc'
p106
I4
sS'engineering-che'
p107
I2
ssg70
(dp108
S'wrm'
p109
I2
sS'lsc'
p110
I5
sg66
I17
sS'glass-at'
p111
I2
sS'engineering-cmpe'
p112
I6
sS'rat'
p113
I5
sS'science-all'
p114
I2
sS'engineering-ce'
p115
I2
sS'slac'
p116
I3
sg76
I1
sS'engineering-cem'
p117
I1
sg78
I4
sS'csi'
p118
I19
sS'mclc'
p119
I3
sS'rtpm'
p120
I5
sS'lara'
p121
I2
sS'zoo'
p122
I9
sS'ims'
p123
I5
sg84
I6
sS'other-mgmt'
p124
I1
sS'cspan'
p125
I8
sS'science-cs'
p126
I2
sg87
I2
sS'soap'
p127
I4
sS'ywca'
p128
I3
sS'engineering-mse'
p129
I1
sS'odos'
p130
I6
sS'voss'
p131
I17
sS'vet'
p132
I2
sS'csops'
p133
I2
sg17
I1
sg94
I3
sS'kes'
p134
I4
sS'wise'
p135
I6
sS'technology-ecet'
p136
I1
sS'wlpl'
p137
I10
sS'engineering-ee'
p138
I6
sg88
I2
sS'hfh'
p139
I10
sS'glass-ps'
p140
I5
sS'engineering-me'
p141
I8
sS'bgi'
p142
I7
sS'lsme'
p143
I13
sg106
I11
sS'engineering-che'
p144
I1
ssS'engineering-cmpe'
p145
(dp146
g68
I1
sS'hhes'
p147
I4
sS'is'
p148
I6
sg113
I6
sS'disc'
p149
I1
sg75
I3
sS'haiti'
p150
I1
sS'csi'
p151
I11
sS'mclc'
p152
I1
sg81
I3
sS'zoo'
p153
I5
sS'ims'
p154
I4
sS'wcgi'
p155
I1
sS'svat'
p156
I6
sS'cspan'
p157
I3
sS'soap'
p158
I2
sS'ywca'
p159
I1
sS'odos'
p160
I1
sS'voss'
p161
I3
sS'csops'
p162
I1
sS'uprc'
p163
I2
sS'kes'
p164
I1
sS'wise'
p165
I4
sS'wlpl'
p166
I3
sS'hfh'
p167
I1
sg140
I1
sS'bgi'
p168
I1
sS'lsme'
p169
I1
sS'cfrc'
p170
I2
ssS'rat'
p171
(dp172
S'rtpm'
p173
I1
sS'lsc'
p174
I3
sS'hhes'
p175
I4
sg148
I5
sg112
I6
sS'uprc'
p176
I5
sS'disc'
p177
I1
sg73
I3
sS'engineering-ce'
p178
I1
sS'slac'
p179
I3
sg8
I1
sS'csi'
p180
I14
sS'mclc'
p181
I4
sg38
I1
sS'wrm'
p182
I1
sS'ims'
p183
I3
sS'zoo'
p184
I6
sS'lara'
p185
I5
sS'svat'
p186
I16
sS'other-mgmt'
p187
I1
sS'cspan'
p188
I8
sg126
I2
sS'engineering-bme'
p189
I1
sS'ywca'
p190
I1
sS'voss'
p191
I3
sS'glass-at'
p192
I2
sS'odos'
p193
I5
sS'csops'
p194
I5
sS'other-cfsci'
p195
I1
sS'haiti'
p196
I2
sS'kes'
p197
I2
sS'engineering-ie'
p198
I1
sS'pharmacutical-pharm'
p199
I2
sS'wise'
p200
I1
sS'bgi'
p201
I4
sS'engineering-ee'
p202
I6
sg158
I6
sg100
I9
sS'glass-ps'
p203
I4
sg60
I1
sS'engineering-me'
p204
I3
sS'wlpl'
p205
I2
sS'lsme'
p206
I2
sg170
I9
sS'engineering-che'
p207
I3
ssS'disc'
p208
(dp209
S'lsc'
p210
I1
sS'glass-at'
p211
I1
sS'engineering-cmpe'
p212
I1
sS'rat'
p213
I1
sS'science-all'
p214
I1
sS'engineering-ce'
p215
I1
sS'vet'
p216
I1
sS'csi'
p217
I2
sS'rtpm'
p218
I2
sS'ims'
p219
I3
sS'zoo'
p220
I1
sS'wcgi'
p221
I1
sS'cspan'
p222
I5
sS'science-cs'
p223
I1
sS'soap'
p224
I1
sS'lara'
p225
I1
sS'pharmacutical-pharm'
p226
I1
sS'technology-cit'
p227
I1
sS'wise'
p228
I4
sS'wlpl'
p229
I2
sg57
I1
sS'hfh'
p230
I2
sS'engineering-me'
p231
I1
sS'bgi'
p232
I1
ssS'science-all'
p233
(dp234
g26
I5
sg175
I3
sS'is'
p235
I2
sg72
I3
sg177
I1
sS'haiti'
p236
I1
sg8
I2
sS'csi'
p237
I5
sS'mclc'
p238
I1
sg182
I1
sg225
I2
sS'zoo'
p239
I2
sg42
I2
sg186
I2
sS'cspan'
p240
I3
sg99
I1
sS'odos'
p241
I1
sS'voss'
p242
I2
sS'csops'
p243
I2
sg54
I2
sS'kes'
p244
I3
sS'wlpl'
p245
I5
sg100
I7
sS'glass-ps'
p246
I2
sS'bgi'
p247
I4
sS'lsme'
p248
I1
sS'cfrc'
p249
I1
ssS'engineering-ce'
p250
(dp251
S'wrm'
p252
I2
sS'lsc'
p253
I3
sS'hhes'
p254
I1
sS'is'
p255
I2
sS'rat'
p256
I1
sg208
I1
sS'lara'
p257
I1
sS'slac'
p258
I1
sg79
I1
sS'mclc'
p259
I2
sg10
I2
sS'ims'
p260
I2
sg122
I6
sg221
I2
sg188
I3
sg13
I4
sS'ywca'
p261
I4
sS'odos'
p262
I3
sS'voss'
p263
I7
sg92
I1
sg228
I2
sS'bgi'
p264
I13
sS'hfh'
p265
I16
sg59
I1
sS'wlpl'
p266
I2
sS'cfrc'
p267
I3
ssS'slac'
p268
(dp269
S'lsc'
p270
I1
sS'hhes'
p271
I4
sS'is'
p272
I3
sS'engineering-cmpe'
p273
I3
sS'rat'
p274
I3
sS'engineering-ce'
p275
I1
sg117
I1
sS'engineering-aae'
p276
I7
sS'csi'
p277
I8
sg120
I3
sg257
I1
sS'zoo'
p278
I7
sS'wcgi'
p279
I2
sS'svat'
p280
I4
sS'other-mgmt'
p281
I1
sS'cspan'
p282
I2
sS'soap'
p283
I5
sS'ywca'
p284
I2
sS'odos'
p285
I8
sg50
I4
sS'voss'
p286
I7
sS'csops'
p287
I7
sS'technology-cit'
p288
I1
sS'uprc'
p289
I6
sS'kes'
p290
I2
sS'engineering-ie'
p291
I1
sS'bgi'
p292
I4
sS'engineering-ee'
p293
I4
sS'hfh'
p294
I5
sS'glass-ps'
p295
I1
sS'ims'
p296
I3
sS'engineering-ide'
p297
I2
sS'engineering-me'
p298
I3
sS'wlpl'
p299
I5
sS'lsme'
p300
I1
sS'cfrc'
p301
I7
ssS'haiti'
p302
(dp303
g173
I2
sS'hhes'
p304
I1
sS'is'
p305
I1
sS'engineering-cmpe'
p306
I1
sS'rat'
p307
I2
sS'science-all'
p308
I1
sS'technology-indt'
p309
I1
sS'engineering-mse'
p310
I1
sS'engineering-aae'
p311
I1
sg9
I7
sg2
I4
sS'zoo'
p312
I1
sS'ims'
p313
I1
sS'svat'
p314
I1
sg12
I1
sg87
I1
sg14
I1
sS'voss'
p315
I6
sS'odos'
p316
I3
sS'csops'
p317
I1
sg176
I1
sS'cfrc'
p318
I1
sS'bgi'
p319
I8
sg202
I1
sS'hfh'
p320
I5
sS'wlpl'
p321
I1
sg169
I2
sS'engineering-ie'
p322
I1
sg25
I2
ssg117
(dp323
S'hfh'
p324
I1
sg272
I1
sg120
I1
sS'csi'
p325
I1
sg116
I1
ssS'pharmacutical-hs'
p326
(dp327
S'hfh'
p328
I1
sS'glass-at'
p329
I1
sS'svat'
p330
I1
sS'glass-ps'
p331
I1
ssg78
(dp332
g66
I1
sg70
I4
sg268
I7
sg302
I1
sg118
I5
sS'mclc'
p333
I1
sS'rtpm'
p334
I1
sg123
I2
sg278
I2
sS'lara'
p335
I2
sg84
I1
sS'cspan'
p336
I2
sg127
I8
sS'ywca'
p337
I2
sg130
I6
sS'glass-at'
p338
I1
sg315
I13
sg287
I1
sg94
I6
sg137
I2
sg320
I5
sS'bgi'
p339
I4
sS'lsme'
p340
I2
sg106
I7
ssS'technology-ols'
p341
(dp342
S'cfrc'
p343
I1
sS'odos'
p344
I1
sS'soap'
p345
I1
ssg118
(dp346
g39
I9
sS'lsc'
p347
I7
sg254
I10
sS'is'
p348
I19
sg145
I11
sS'uprc'
p349
I2
sS'rat'
p350
I14
sg177
I2
sg233
I5
sg74
I1
sS'slac'
p351
I8
sg117
I1
sS'engineering-aae'
p352
I5
sg238
I4
sg38
I1
sg2
I5
sS'ims'
p353
I7
sS'zoo'
p354
I15
sg335
I8
sS'svat'
p355
I8
sg336
I20
sS'science-cs'
p356
I2
sS'soap'
p357
I6
sg337
I8
sg129
I3
sg130
I15
sS'glass-at'
p358
I3
sS'voss'
p359
I21
sS'vet'
p360
I1
sg92
I17
sg17
I1
sg18
I7
sg244
I6
sS'engineering-ie'
p361
I3
sS'engineering-che'
p362
I11
sg165
I4
sg137
I11
sg138
I9
sS'hfh'
p363
I18
sg246
I6
sg60
I1
sg141
I7
sg339
I25
sg340
I3
sS'cfrc'
p364
I13
sg25
I1
ssg333
(dp365
S'lsc'
p366
I2
sS'hhes'
p367
I7
sS'glass-at'
p368
I2
sS'engineering-cmpe'
p369
I1
sg171
I4
sS'science-all'
p370
I1
sS'engineering-ce'
p371
I2
sS'engineering-aae'
p372
I1
sS'csi'
p373
I4
sS'lara'
p374
I1
sg184
I8
sS'wcgi'
p375
I1
sS'svat'
p376
I2
sg187
I1
sS'cspan'
p377
I4
sS'soap'
p378
I4
sS'ywca'
p379
I3
sS'voss'
p380
I5
sS'odos'
p381
I3
sS'csops'
p382
I1
sS'liberal_arts-comm'
p383
I1
sS'uprc'
p384
I4
sg164
I7
sS'is'
p385
I3
sg96
I2
sS'bgi'
p386
I4
sS'engineering-ee'
p387
I3
sS'hfh'
p388
I8
sg203
I6
sS'ims'
p389
I3
sS'technology-met'
p390
I1
sS'engineering-me'
p391
I2
sg206
I3
sS'cfrc'
p392
I3
ssg38
(dp393
S'csi'
p394
I1
sS'lsc'
p395
I2
sS'hhes'
p396
I1
sS'rat'
p397
I1
sS'hfh'
p398
I1
sS'glass-ps'
p399
I1
sS'lara'
p400
I1
sS'cspan'
p401
I1
ssg334
(dp402
g347
I3
sg272
I5
sg307
I1
sg32
I2
sg7
I2
sg116
I3
sg117
I1
sS'engineering-aae'
p403
I1
sg36
I9
sg252
I2
sg51
I2
sg45
I3
sg13
I3
sS'odos'
p404
I3
sS'glass-at'
p405
I1
sS'voss'
p406
I5
sg216
I1
sS'csops'
p407
I2
sg226
I1
sg196
I2
sg322
I1
sg19
I2
sS'bgi'
p408
I5
sg202
I5
sS'hfh'
p409
I8
sS'engineering-me'
p410
I2
sS'wlpl'
p411
I1
sS'lsme'
p412
I1
sg318
I1
sg65
I1
ssg123
(dp413
g68
I1
sg28
I2
sS'is'
p414
I5
sg212
I4
sS'rat'
p415
I3
sg208
I3
sg115
I2
sS'slac'
p416
I3
sS'haiti'
p417
I1
sg310
I1
sS'engineering-aae'
p418
I2
sg180
I7
sS'mclc'
p419
I3
sg221
I1
sg122
I6
sg185
I1
sS'svat'
p420
I1
sS'cspan'
p421
I7
sS'science-cs'
p422
I1
sg127
I3
sg190
I1
sS'odos'
p423
I6
sS'glass-at'
p424
I1
sg131
I4
sg194
I5
sg227
I1
sS'uprc'
p425
I4
sg197
I1
sg228
I5
sg232
I5
sS'engineering-ee'
p426
I1
sg139
I5
sS'glass-ps'
p427
I1
sS'engineering-me'
p428
I2
sg229
I3
sS'cfrc'
p429
I4
sg207
I3
ssg278
(dp430
S'lsc'
p431
I1
sg147
I14
sg255
I9
sS'engineering-cmpe'
p432
I5
sS'uprc'
p433
I2
sg171
I6
sg149
I1
sS'science-all'
p434
I2
sg115
I6
sS'slac'
p435
I7
sS'engineering-aae'
p436
I2
sS'csi'
p437
I15
sg181
I8
sg121
I1
sg69
I1
sg260
I6
sg155
I3
sS'svat'
p438
I7
sg187
I1
sg188
I7
sg126
I4
sS'soap'
p439
I12
sg379
I4
sS'voss'
p440
I12
sg111
I4
sg193
I8
sg133
I6
sg93
I1
sg150
I1
sg95
I6
sg291
I2
sS'engineering-che'
p441
I1
sg165
I2
sg136
I3
sg292
I20
sS'engineering-ee'
p442
I6
sg139
I16
sS'glass-ps'
p443
I6
sS'technology-met'
p444
I2
sg299
I5
sg206
I5
sS'cfrc'
p445
I4
sS'engineering-abe'
p446
I1
ssg69
(dp447
S'hhes'
p448
I1
sS'hfh'
p449
I1
sS'bgi'
p450
I1
sS'zoo'
p451
I1
ssg335
(dp452
g347
I5
sS'hhes'
p453
I1
sS'is'
p454
I2
sS'engineering-cmpe'
p455
I3
sg415
I5
sg177
I1
sg214
I2
sg275
I1
sg258
I1
sS'engineering-aae'
p456
I2
sS'csi'
p457
I8
sS'mclc'
p458
I1
sS'liberal_arts-all'
p459
I1
sg39
I2
sg279
I2
sS'zoo'
p460
I1
sg183
I1
sg420
I2
sg222
I2
sg126
I2
sg357
I3
sg337
I4
sg405
I1
sS'voss'
p461
I1
sg53
I2
sg205
I2
sS'engineering-ee'
p462
I2
sg363
I6
sg399
I1
sg410
I2
sS'cfrc'
p463
I1
sg207
I2
ssg42
(dp464
S'ywca'
p465
I1
sS'engineering-cmpe'
p466
I1
sg228
I1
sg26
I1
sg458
I1
sS'hhes'
p467
I1
sg62
I1
sg232
I3
sg257
I2
sg99
I2
sg294
I3
sg219
I1
sg208
I1
sS'svat'
p468
I1
sg444
I1
sg33
I2
sg215
I2
sg54
I2
sS'zoo'
p469
I3
sS'engineering-nucl'
p470
I1
sg258
I2
ssg84
(dp471
g110
I1
sg66
I8
sg70
I6
sS'engineering-cmpe'
p472
I6
sg72
I16
sg73
I2
sS'slac'
p473
I4
sg78
I1
sS'csi'
p474
I8
sg152
I2
sg182
I3
sg185
I2
sS'zoo'
p475
I7
sg183
I1
sS'wcgi'
p476
I1
sS'haiti'
p477
I1
sg281
I2
sS'cspan'
p478
I1
sg86
I1
sg46
I3
sg190
I4
sg160
I4
sS'glass-at'
p479
I3
sg52
I5
sg8
I1
sg162
I6
sg195
I1
sg94
I5
sg164
I1
sg199
I3
sS'wise'
p480
I1
sg97
I11
sS'engineering-ee'
p481
I3
sS'soap'
p482
I3
sg326
I1
sg100
I9
sS'glass-ps'
p483
I3
sg23
I1
sS'wlpl'
p484
I2
sg63
I1
sg106
I6
sg207
I1
ssg187
(dp485
S'ywca'
p486
I1
sS'lsc'
p487
I1
sg181
I1
sg473
I1
sS'is'
p488
I1
sS'voss'
p489
I2
sS'uprc'
p490
I1
sg203
I2
sg184
I1
sS'hfh'
p491
I1
sg171
I1
sg280
I2
sg206
I1
sS'cfrc'
p492
I2
sS'kes'
p493
I1
sg482
I1
ssg336
(dp494
g39
I3
sg347
I10
sS'hhes'
p495
I4
sS'is'
p496
I8
sg30
I3
sg256
I8
sg177
I5
sS'science-all'
p497
I3
sg178
I3
sg425
I4
sS'engineering-aae'
p498
I2
sS'csi'
p499
I20
sg259
I4
sg38
I1
sg2
I2
sg225
I2
sS'zoo'
p500
I7
sS'ims'
p501
I7
sS'svat'
p502
I1
sg422
I2
sS'soap'
p503
I2
sg379
I2
sS'voss'
p504
I5
sg358
I4
sg416
I2
sg193
I6
sS'vet'
p505
I1
sg407
I2
sS'other-cfsci'
p506
I1
sg227
I1
sg18
I1
sg134
I2
sS'engineering-ie'
p507
I1
sg144
I3
sS'wise'
p508
I3
sg339
I7
sg138
I7
sS'hfh'
p509
I9
sS'glass-ps'
p510
I1
sg60
I1
sg141
I4
sg229
I4
sg340
I3
sS'cfrc'
p511
I6
sg25
I1
ssg126
(dp512
S'disc'
p513
I1
sg135
I2
sS'hhes'
p514
I1
sg205
I3
sg454
I2
sS'bgi'
p515
I1
sS'rat'
p516
I2
sg460
I4
sS'hfh'
p517
I1
sg121
I2
sS'ims'
p518
I1
sg438
I1
sS'lsme'
p519
I1
sS'csi'
p520
I2
sS'cspan'
p521
I2
sS'soap'
p522
I1
ssg470
(dp523
g304
I2
sS'bgi'
p524
I1
sg305
I2
sS'voss'
p525
I1
sS'hfh'
p526
I1
sS'wcgi'
p527
I1
sS'wlpl'
p528
I1
sS'lsme'
p529
I2
sg76
I1
ssg127
(dp530
g10
I3
sg467
I3
sg338
I6
sS'engineering-cmpe'
p531
I2
sS'rat'
p532
I6
sS'disc'
p533
I1
sS'science-all'
p534
I1
sg7
I4
sS'slac'
p535
I5
sg418
I8
sg341
I1
sS'csi'
p536
I6
sg333
I4
sg252
I1
sg123
I3
sS'zoo'
p537
I12
sS'lara'
p538
I3
sg83
I2
sg280
I3
sg281
I1
sS'cspan'
p539
I2
sS'science-cs'
p540
I1
sg414
I4
sS'ywca'
p541
I3
sg131
I13
sS'odos'
p542
I8
sg287
I3
sg384
I4
sS'kes'
p543
I2
sS'engineering-ie'
p544
I1
sg292
I8
sS'engineering-ee'
p545
I5
sS'hfh'
p546
I19
sg443
I3
sg444
I3
sS'engineering-me'
p547
I5
sg299
I1
sg143
I1
sg429
I9
sg446
I1
ssg47
(dp548
S'odos'
p549
I1
sS'lsc'
p550
I1
sS'mclc'
p551
I1
sS'bgi'
p552
I2
sS'voss'
p553
I1
sS'uprc'
p554
I1
sS'zoo'
p555
I2
sS'hfh'
p556
I2
sS'wcgi'
p557
I1
sS'cfrc'
p558
I1
sS'soap'
p559
I3
ssg337
(dp560
S'lsc'
p561
I1
sS'hhes'
p562
I2
sS'is'
p563
I3
sS'engineering-cmpe'
p564
I1
sS'uprc'
p565
I1
sg415
I1
sg250
I4
sg351
I2
sg456
I2
sg457
I8
sg259
I3
sS'wrm'
p566
I2
sg335
I4
sS'zoo'
p567
I4
sg183
I1
sg375
I1
sg420
I4
sg124
I1
sg377
I2
sS'soap'
p568
I3
sg359
I4
sg381
I2
sg17
I2
sg477
I1
sS'engineering-ie'
p569
I2
sg264
I7
sg363
I10
sS'glass-ps'
p570
I2
sS'engineering-me'
p571
I1
sS'wlpl'
p572
I1
sS'lsme'
p573
I1
sS'cfrc'
p574
I3
sg207
I1
ssg129
(dp575
S'odos'
p576
I1
sS'csi'
p577
I3
sS'hhes'
p578
I1
sS'bgi'
p579
I3
sS'is'
p580
I1
sS'voss'
p581
I2
sg317
I2
sS'hfh'
p582
I1
sg313
I1
sg417
I1
ssg130
(dp583
g109
I1
sg174
I2
sg338
I6
sS'engineering-cmpe'
p584
I1
sg256
I5
sg308
I1
sS'engineering-ce'
p585
I3
sg268
I8
sS'haiti'
p586
I3
sg310
I1
sg352
I6
sg341
I1
sg118
I15
sg259
I3
sg334
I3
sg500
I8
sS'ims'
p587
I6
sS'svat'
p588
I4
sg188
I6
sg348
I6
sS'technology-met'
p589
I1
sg379
I2
sg406
I9
sg287
I6
sg288
I1
sS'uprc'
p590
I6
sg569
I1
sS'wise'
p591
I3
sg137
I6
sS'engineering-ee'
p592
I7
sg283
I8
sg409
I11
sS'glass-ps'
p593
I1
sg60
I1
sg61
I4
sg408
I10
sg364
I8
sg441
I1
ssg338
(dp594
g270
I3
sS'hhes'
p595
I3
sS'is'
p596
I2
sS'rat'
p597
I2
sg533
I1
sg35
I4
sS'engineering-aae'
p598
I1
sS'csi'
p599
I3
sS'mclc'
p600
I2
sS'rtpm'
p601
I1
sS'lara'
p602
I1
sS'zoo'
p603
I4
sS'ims'
p604
I1
sS'svat'
p605
I3
sS'cspan'
p606
I4
sS'soap'
p607
I6
sS'odos'
p608
I6
sS'voss'
p609
I3
sg505
I1
sg133
I2
sg195
I1
sg288
I1
sS'uprc'
p610
I5
sS'kes'
p611
I3
sg507
I1
sg136
I2
sS'bgi'
p612
I4
sS'engineering-ee'
p613
I2
sg326
I1
sg546
I9
sS'glass-ps'
p614
I4
sg297
I2
sg410
I3
sg445
I4
ssg315
(dp615
S'wrm'
p616
I2
sg110
I5
sS'hhes'
p617
I9
sg414
I17
sg145
I3
sg113
I3
sg308
I2
sg115
I7
sg535
I7
sg129
I2
sg311
I13
sg277
I21
sg333
I5
sg334
I5
sg123
I4
sg278
I12
sg538
I1
sg302
I6
sg124
I2
sg43
I5
sg421
I5
sg87
I1
sg127
I13
sg284
I4
sg192
I3
sg404
I9
sg132
I1
sg287
I5
sg383
I1
sg384
I8
sS'kes'
p618
I2
sg362
I3
sS'wise'
p619
I2
sg319
I22
sg592
I4
sg46
I2
sg309
I1
sg320
I21
sg443
I3
sg390
I1
sg391
I3
sg321
I2
sg143
I7
sg429
I9
sg446
I1
ssg8
(dp620
S'voss'
p621
I1
sS'csi'
p622
I1
sS'wlpl'
p623
I1
sS'bgi'
p624
I1
sS'glass-at'
p625
I1
sg182
I1
sS'uprc'
p626
I1
sg226
I1
sS'hfh'
p627
I4
sg5
I1
sS'disc'
p628
I1
sg11
I1
sS'rtpm'
p629
I1
sS'engineering-me'
p630
I1
sg6
I2
sg249
I1
sS'cspan'
p631
I1
sg507
I2
sS'is'
p632
I2
ssg287
(dp633
S'lsc'
p634
I1
sg254
I2
sg111
I2
sS'engineering-cmpe'
p635
I1
sS'uprc'
p636
I2
sg350
I5
sS'science-all'
p637
I2
sg74
I1
sg535
I7
sg310
I2
sS'engineering-aae'
p638
I1
sg79
I17
sS'mclc'
p639
I1
sS'rtpm'
p640
I2
sS'lara'
p641
I2
sg603
I6
sg353
I5
sS'svat'
p642
I6
sS'cspan'
p643
I2
sg596
I2
sg542
I6
sg286
I5
sg199
I3
sg417
I1
sg543
I1
sg136
I1
sS'bgi'
p644
I6
sg293
I3
sg283
I3
sS'hfh'
p645
I7
sS'engineering-me'
p646
I2
sS'wlpl'
p647
I4
sS'lsme'
p648
I1
sS'cfrc'
p649
I4
sS'engineering-che'
p650
I5
ssg93
(dp651
g128
I2
sS'csi'
p652
I1
sS'cspan'
p653
I1
sS'hhes'
p654
I2
sS'bgi'
p655
I3
sg479
I1
sS'wrm'
p656
I1
sS'rat'
p657
I1
sS'zoo'
p658
I1
sS'hfh'
p659
I3
sS'glass-ps'
p660
I1
sg605
I1
sS'lsme'
p661
I1
sS'cfrc'
p662
I1
sg610
I1
sg563
I1
ssg227
(dp663
g508
I1
sg229
I1
sS'glass-at'
p664
I1
sS'odos'
p665
I1
sS'ims'
p666
I1
sS'disc'
p667
I1
sS'cspan'
p668
I1
sS'slac'
p669
I1
ssg383
(dp670
S'hfh'
p671
I1
sS'cfrc'
p672
I1
sS'voss'
p673
I1
sS'uprc'
p674
I1
sS'mclc'
p675
I1
ssg94
(dp676
g26
I2
sg66
I6
sg70
I3
sg369
I2
sS'rat'
p677
I5
sg33
I2
sS'slac'
p678
I6
sg78
I6
sg383
I1
sg333
I4
sg501
I4
sS'zoo'
p679
I2
sg42
I2
sg84
I5
sS'other-mgmt'
p680
I1
sg421
I4
sg378
I4
sg589
I1
sS'ywca'
p681
I1
sg380
I8
sg479
I5
sS'odos'
p682
I6
sg505
I1
sS'csops'
p683
I2
sg195
I1
sS'csi'
p684
I2
sg586
I1
sg164
I4
sg507
I1
sg199
I2
sg62
I3
sS'hfh'
p685
I12
sg297
I2
sS'engineering-me'
p686
I1
sS'bgi'
p687
I3
sg106
I8
ssg244
(dp688
g366
I7
sg367
I9
sS'glass-at'
p689
I3
sg369
I1
sS'rat'
p690
I2
sg233
I3
sg35
I2
sg237
I6
sg152
I7
sS'zoo'
p691
I6
sS'ims'
p692
I1
sg376
I1
sg44
I1
sS'cspan'
p693
I2
sS'is'
p694
I4
sS'voss'
p695
I2
sS'csops'
p696
I1
sg163
I4
sg96
I1
sS'bgi'
p697
I2
sS'engineering-ee'
p698
I5
sS'soap'
p699
I2
sg167
I6
sg246
I7
sg297
I2
sg103
I2
sg245
I2
sS'lsme'
p700
I1
sS'cfrc'
p701
I3
ssS'engineering-ie'
p702
(dp703
S'ywca'
p704
I2
sg505
I2
sS'odos'
p705
I1
sS'csi'
p706
I3
sS'slac'
p707
I1
sS'bgi'
p708
I4
sg625
I1
sS'rtpm'
p709
I1
sS'zoo'
p710
I2
sg627
I4
sS'rat'
p711
I1
sS'haiti'
p712
I1
sg572
I2
sS'cfrc'
p713
I1
sg631
I1
sg626
I1
sS'soap'
p714
I1
ssg199
(dp715
g216
I1
sS'bgi'
p716
I1
sg629
I1
sg683
I3
sS'hfh'
p717
I2
sS'rat'
p718
I2
sg628
I1
sS'svat'
p719
I3
sg636
I2
ssg207
(dp720
g190
I1
sg39
I1
sS'csi'
p721
I11
sg347
I1
sS'odos'
p722
I1
sS'hhes'
p723
I2
sS'bgi'
p724
I2
sg496
I1
sS'voss'
p725
I3
sg183
I3
sg194
I5
sg645
I1
sg185
I2
sg420
I1
sS'glass-ps'
p726
I1
sS'cfrc'
p727
I2
sg354
I1
sg125
I3
sg415
I3
ssg228
(dp728
S'rtpm'
p729
I2
sS'is'
p730
I6
sg212
I4
sS'rat'
p731
I1
sg208
I4
sg215
I2
sS'csi'
p732
I4
sg109
I2
sg219
I5
sg220
I2
sg221
I1
sg588
I1
sg668
I3
sg422
I2
sg15
I2
sg262
I3
sg227
I1
sg232
I3
sg21
I1
sS'hfh'
p733
I1
sg140
I1
sg428
I1
sg266
I7
sg24
I2
ssg136
(dp734
g80
I2
sg367
I1
sg596
I1
sg133
I1
sg101
I2
sg445
I1
sg603
I3
sg95
I1
sg111
I2
ssg137
(dp735
g26
I2
sS'hhes'
p736
I3
sg348
I10
sS'engineering-cmpe'
p737
I3
sg516
I2
sg667
I2
sg233
I5
sg585
I2
sS'slac'
p738
I5
sS'haiti'
p739
I1
sg352
I2
sg118
I11
sS'rtpm'
p740
I1
sg666
I3
sg537
I5
sg42
I1
sg588
I2
sg668
I4
sg126
I3
sS'engineering-nucl'
p741
I1
sg88
I1
sg704
I1
sS'voss'
p742
I2
sg121
I2
sg130
I6
sg360
I1
sS'csops'
p743
I4
sg227
I1
sg54
I3
sg244
I2
sg569
I2
sg591
I7
sg292
I6
sg138
I2
sg439
I1
sg309
I1
sg733
I4
sg246
I2
sg428
I2
sg105
I3
sg364
I6
ssg138
(dp744
g173
I5
sg210
I2
sS'hhes'
p745
I5
sS'is'
p746
I6
sg307
I6
sg32
I1
sS'slac'
p747
I4
sS'csi'
p748
I9
sS'mclc'
p749
I3
sg109
I1
sS'ims'
p750
I1
sS'zoo'
p751
I6
sg641
I2
sS'svat'
p752
I3
sS'cspan'
p753
I7
sS'soap'
p754
I5
sS'voss'
p755
I4
sS'glass-at'
p756
I2
sS'odos'
p757
I7
sg407
I3
sg196
I1
sg134
I5
sg19
I1
sS'wlpl'
p758
I2
sS'hfh'
p759
I6
sS'glass-ps'
p760
I3
sS'bgi'
p761
I2
sS'cfrc'
p762
I4
ssg88
(dp763
g110
I1
sg736
I2
sg104
I1
sS'is'
p764
I2
sg52
I2
sS'hfh'
p765
I2
sS'rat'
p766
I1
sg43
I3
sg97
I1
sg105
I2
sS'cfrc'
p767
I1
ssg309
(dp768
S'hfh'
p769
I1
sg739
I1
sg742
I1
sS'bgi'
p770
I1
sg321
I1
ssg320
(dp771
g334
I8
sS'lsc'
p772
I9
sg175
I13
sg338
I9
sg369
I1
sg72
I9
sg533
I2
sg73
I7
sg250
I16
sg302
I5
sg117
I1
sg326
I1
sg311
I5
sg457
I18
sg238
I8
sg459
I1
sS'wrm'
p773
I3
sg260
I5
sg122
I16
sg69
I1
sg335
I6
sg279
I3
sg186
I9
sg680
I1
sg539
I9
sg540
I1
sg470
I1
sg189
I2
sg337
I10
sg77
I1
sg315
I21
sg258
I5
sg404
I11
sg505
I4
sS'csops'
p774
I7
sg93
I3
sg383
I1
sg590
I12
sg164
I6
sg507
I4
sg255
I10
sg226
I2
sS'engineering-che'
p775
I1
sg591
I1
sg319
I38
sg698
I6
sg607
I19
sg309
I1
sS'glass-ps'
p776
I4
sg47
I2
sg391
I6
sg266
I4
sg648
I4
sg267
I12
sS'engineering-abe'
p777
I1
ssg443
(dp778
g253
I4
sg367
I7
sg368
I4
sS'engineering-cmpe'
p779
I1
sg171
I4
sg233
I2
sg34
I1
sS'slac'
p780
I1
sg237
I6
sg181
I6
sg459
I1
sg400
I1
sS'zoo'
p781
I6
sg750
I1
sS'svat'
p782
I3
sg187
I2
sS'cspan'
p783
I1
sS'is'
p784
I5
sS'ywca'
p785
I2
sS'odos'
p786
I1
sS'voss'
p787
I3
sS'other-cfsci'
p788
I1
sg244
I7
sg446
I1
sg200
I1
sg96
I2
sg245
I2
sg98
I3
sS'soap'
p789
I3
sg326
I1
sS'hfh'
p790
I4
sg61
I2
sg206
I3
sg662
I1
sg362
I1
ssg60
(dp791
S'csi'
p792
I1
sg174
I2
sS'hhes'
p793
I1
sg50
I2
sg49
I1
sS'uprc'
p794
I2
sg31
I1
sS'cspan'
p795
I1
sg290
I2
sg35
I2
ssg141
(dp796
g601
I2
sS'lsc'
p797
I3
sS'hhes'
p798
I3
sg405
I3
sS'rat'
p799
I3
sg533
I1
sS'slac'
p800
I3
sg132
I1
sS'csi'
p801
I7
sg119
I2
sS'wrm'
p802
I1
sg602
I2
sS'ims'
p803
I2
sg502
I1
sS'cspan'
p804
I4
sS'is'
p805
I8
sS'ywca'
p806
I1
sS'voss'
p807
I3
sg786
I4
sS'csops'
p808
I2
sS'uprc'
p809
I1
sS'kes'
p810
I2
sS'wise'
p811
I1
sS'bgi'
p812
I4
sS'soap'
p813
I5
sS'hfh'
p814
I6
sg593
I2
sS'wlpl'
p815
I2
sg700
I2
sS'cfrc'
p816
I6
ssg339
(dp817
g334
I5
sg772
I5
sg617
I10
sS'is'
p818
I7
sg306
I1
sg610
I3
sg256
I4
sg208
I1
sg370
I4
sg250
I13
sg738
I4
sg129
I3
sg498
I4
sg499
I25
sS'mclc'
p819
I4
sg2
I9
sg221
I3
sg537
I20
sg69
I1
sg219
I5
sS'svat'
p820
I11
sg336
I7
sg86
I1
sg470
I1
sg439
I8
sg261
I7
sg315
I22
sg358
I4
sg404
I10
sg132
I1
sS'csops'
p821
I6
sg93
I3
sg302
I8
sS'kes'
p822
I2
sg702
I4
sS'pharmacutical-pharm'
p823
I1
sS'engineering-che'
p824
I2
sg228
I3
sg299
I6
sS'engineering-ee'
p825
I2
sS'engineering-bme'
p826
I1
sg309
I1
sg320
I38
sg47
I2
sg428
I4
sg340
I3
sg511
I6
sg25
I2
ssg340
(dp827
S'rtpm'
p828
I1
sg110
I2
sg736
I10
sS'is'
p829
I13
sg306
I1
sg171
I2
sS'science-all'
p830
I1
sg800
I1
sg498
I2
sg499
I3
sg181
I3
sg616
I1
sg184
I5
sg43
I1
sg187
I1
sg336
I3
sg356
I1
sg87
I2
sS'soap'
p831
I1
sS'ywca'
p832
I1
sS'voss'
p833
I7
sS'csops'
p834
I1
sg788
I1
sg150
I2
sg810
I1
sg619
I2
sg339
I3
sg88
I2
sS'hfh'
p835
I4
sg203
I3
sg103
I2
sg104
I3
sg511
I3
ssg106
(dp836
g487
I1
sg66
I4
sg70
I11
sg472
I2
sS'rat'
p837
I9
sg114
I1
sS'engineering-ce'
p838
I3
sg268
I7
sg196
I1
sg78
I7
sg341
I1
sg118
I13
sg819
I3
sg173
I1
sS'lara'
p839
I1
sg603
I4
sg123
I4
sg84
I6
sg281
I2
sg336
I6
sg127
I9
sS'ywca'
p840
I3
sg130
I8
sg111
I4
sg131
I9
sg360
I1
sS'csops'
p841
I4
sg788
I1
sg383
I1
sg94
I8
sg611
I3
sg136
I1
sg137
I6
sg138
I4
sg88
I1
sS'hfh'
p842
I12
sg660
I1
sg589
I1
sg141
I6
sg339
I6
sg340
I3
sg544
I1
sg144
I2
ssg25
(dp843
g787
I1
sg9
I1
sg20
I2
sg2
I2
sg789
I1
sg22
I1
sg443
I1
sg12
I1
sg781
I1
sg18
I2
ss(dp844
g2
I12
sg26
I30
sg66
I51
sg70
I55
sg145
I24
sg171
I46
sg208
I8
sg233
I18
sg250
I22
sg268
I35
sg302
I13
sg117
I1
sg326
I1
sg78
I20
sg341
I1
sg118
I97
sg333
I27
sg38
I2
sg334
I17
sg123
I26
sg278
I63
sg69
I1
sg335
I19
sg42
I9
sg84
I42
sg187
I5
sg336
I45
sg126
I7
sg470
I3
sg127
I46
sg47
I4
sg337
I25
sg129
I4
sg130
I45
sg338
I25
sg315
I68
sg8
I6
sg287
I34
sg93
I5
sg227
I2
sg383
I1
sg94
I30
sg244
I24
sg702
I9
sg199
I5
sg207
I12
sg228
I13
sg136
I4
sg137
I30
sg138
I30
sg88
I4
sg309
I1
sg320
I98
sg443
I24
sg60
I3
sg141
I22
sg339
I82
sg340
I20
sg106
I47
sg25
I3
st.